target datalayout = "e-m:e-p270:32:32-p271:32:32-p272:64:64-i64:64-i128:128-f80:128-n8:16:32:64-S128"
target triple = "x86_64-pc-linux-gnu"

%struct.pm_buffer_t = type { i64, i64, ptr }

; Function Attrs: alwaysinline nounwind
define internal ptr @memcpy.inline(ptr noalias nonnull %0, ptr noalias nonnull %1, i64 %2) #4 {
  %4 = alloca ptr, align 8
  %5 = alloca ptr, align 8
  %6 = alloca i64, align 8
  store ptr %0, ptr %4, align 8, !tbaa !7
  store ptr %1, ptr %5, align 8, !tbaa !7
  store i64 %2, ptr %6, align 8, !tbaa !11
  %7 = load ptr, ptr %4, align 8, !tbaa !7
  %8 = load ptr, ptr %5, align 8, !tbaa !7
  %9 = load i64, ptr %6, align 8, !tbaa !11
  %10 = load ptr, ptr %4, align 8, !tbaa !7
  %11 = call i64 @llvm.objectsize.i64.p0(ptr %10, i1 false, i1 true, i1 false)
  %12 = call ptr @__memcpy_chk(ptr noundef %7, ptr noundef %8, i64 noundef %9, i64 noundef %11) #13
  ret ptr %12
}

; Function Attrs: alwaysinline nounwind
define internal ptr @memmove.inline(ptr nonnull %0, ptr nonnull %1, i64 %2) #4 {
  %4 = alloca ptr, align 8
  %5 = alloca ptr, align 8
  %6 = alloca i64, align 8
  store ptr %0, ptr %4, align 8, !tbaa !7
  store ptr %1, ptr %5, align 8, !tbaa !7
  store i64 %2, ptr %6, align 8, !tbaa !11
  %7 = load ptr, ptr %4, align 8, !tbaa !7
  %8 = load ptr, ptr %5, align 8, !tbaa !7
  %9 = load i64, ptr %6, align 8, !tbaa !11
  %10 = load ptr, ptr %4, align 8, !tbaa !7
  %11 = call i64 @llvm.objectsize.i64.p0(ptr %10, i1 false, i1 true, i1 false)
  %12 = call ptr @__memmove_chk(ptr noundef %7, ptr noundef %8, i64 noundef %9, i64 noundef %11) #13
  ret ptr %12
}

; Function Attrs: inlinehint nounwind sspstrong uwtable
define internal zeroext i1 @pm_buffer_append_length(ptr noundef %0, i64 noundef %1) #3 {
  %3 = alloca i1, align 1
  %4 = alloca ptr, align 8
  %5 = alloca i64, align 8
  %6 = alloca i64, align 8
  %7 = alloca i32, align 4
  store ptr %0, ptr %4, align 8, !tbaa !7
  store i64 %1, ptr %5, align 8, !tbaa !11
  call void @llvm.lifetime.start.p0(i64 8, ptr %6) #13
  %8 = load ptr, ptr %4, align 8, !tbaa !7
  %9 = getelementptr inbounds nuw %struct.pm_buffer_t, ptr %8, i32 0, i32 0
  %10 = load i64, ptr %9, align 8, !tbaa !13
  %11 = load i64, ptr %5, align 8, !tbaa !11
  %12 = add i64 %10, %11
  store i64 %12, ptr %6, align 8, !tbaa !11
  %13 = load i64, ptr %6, align 8, !tbaa !11
  %14 = load ptr, ptr %4, align 8, !tbaa !7
  %15 = getelementptr inbounds nuw %struct.pm_buffer_t, ptr %14, i32 0, i32 1
  %16 = load i64, ptr %15, align 8, !tbaa !16
  %17 = icmp ugt i64 %13, %16
  br i1 %17, label %18, label %54

18:                                               ; preds = %2
  %19 = load ptr, ptr %4, align 8, !tbaa !7
  %20 = getelementptr inbounds nuw %struct.pm_buffer_t, ptr %19, i32 0, i32 1
  %21 = load i64, ptr %20, align 8, !tbaa !16
  %22 = icmp eq i64 %21, 0
  br i1 %22, label %23, label %26

23:                                               ; preds = %18
  %24 = load ptr, ptr %4, align 8, !tbaa !7
  %25 = getelementptr inbounds nuw %struct.pm_buffer_t, ptr %24, i32 0, i32 1
  store i64 1, ptr %25, align 8, !tbaa !16
  br label %26

26:                                               ; preds = %23, %18
  br label %27

27:                                               ; preds = %33, %26
  %28 = load i64, ptr %6, align 8, !tbaa !11
  %29 = load ptr, ptr %4, align 8, !tbaa !7
  %30 = getelementptr inbounds nuw %struct.pm_buffer_t, ptr %29, i32 0, i32 1
  %31 = load i64, ptr %30, align 8, !tbaa !16
  %32 = icmp ugt i64 %28, %31
  br i1 %32, label %33, label %38

33:                                               ; preds = %27
  %34 = load ptr, ptr %4, align 8, !tbaa !7
  %35 = getelementptr inbounds nuw %struct.pm_buffer_t, ptr %34, i32 0, i32 1
  %36 = load i64, ptr %35, align 8, !tbaa !16
  %37 = mul i64 %36, 2
  store i64 %37, ptr %35, align 8, !tbaa !16
  br label %27, !llvm.loop !18

38:                                               ; preds = %27
  %39 = load ptr, ptr %4, align 8, !tbaa !7
  %40 = getelementptr inbounds nuw %struct.pm_buffer_t, ptr %39, i32 0, i32 2
  %41 = load ptr, ptr %40, align 8, !tbaa !17
  %42 = load ptr, ptr %4, align 8, !tbaa !7
  %43 = getelementptr inbounds nuw %struct.pm_buffer_t, ptr %42, i32 0, i32 1
  %44 = load i64, ptr %43, align 8, !tbaa !16
  %45 = call ptr @realloc(ptr noundef %41, i64 noundef %44) #14
  %46 = load ptr, ptr %4, align 8, !tbaa !7
  %47 = getelementptr inbounds nuw %struct.pm_buffer_t, ptr %46, i32 0, i32 2
  store ptr %45, ptr %47, align 8, !tbaa !17
  %48 = load ptr, ptr %4, align 8, !tbaa !7
  %49 = getelementptr inbounds nuw %struct.pm_buffer_t, ptr %48, i32 0, i32 2
  %50 = load ptr, ptr %49, align 8, !tbaa !17
  %51 = icmp eq ptr %50, null
  br i1 %51, label %52, label %53

52:                                               ; preds = %38
  store i1 false, ptr %3, align 1
  store i32 1, ptr %7, align 4
  br label %58

53:                                               ; preds = %38
  br label %54

54:                                               ; preds = %53, %2
  %55 = load i64, ptr %6, align 8, !tbaa !11
  %56 = load ptr, ptr %4, align 8, !tbaa !7
  %57 = getelementptr inbounds nuw %struct.pm_buffer_t, ptr %56, i32 0, i32 0
  store i64 %55, ptr %57, align 8, !tbaa !13
  store i1 true, ptr %3, align 1
  store i32 1, ptr %7, align 4
  br label %58

58:                                               ; preds = %54, %52
  call void @llvm.lifetime.end.p0(i64 8, ptr %6) #13
  %59 = load i1, ptr %3, align 1
  ret i1 %59
}

; Function Attrs: nounwind sspstrong uwtable
define hidden void @pm_buffer_prepend_string(ptr noundef %0, ptr noundef %1, i64 noundef %2) #0 {
  %4 = alloca ptr, align 8
  %5 = alloca ptr, align 8
  %6 = alloca i64, align 8
  %7 = alloca i64, align 8
  store ptr %0, ptr %4, align 8, !tbaa !7
  store ptr %1, ptr %5, align 8, !tbaa !22
  store i64 %2, ptr %6, align 8, !tbaa !11
  call void @llvm.lifetime.start.p0(i64 8, ptr %7) #13
  %8 = load ptr, ptr %4, align 8, !tbaa !7
  %9 = getelementptr inbounds nuw %struct.pm_buffer_t, ptr %8, i32 0, i32 0
  %10 = load i64, ptr %9, align 8, !tbaa !13
  store i64 %10, ptr %7, align 8, !tbaa !11
  %11 = load ptr, ptr %4, align 8, !tbaa !7
  %12 = load i64, ptr %6, align 8, !tbaa !11
  %13 = call zeroext i1 @pm_buffer_append_length(ptr noundef %11, i64 noundef %12)
  br i1 %13, label %14, label %31

14:                                               ; preds = %3
  %15 = load ptr, ptr %4, align 8, !tbaa !7
  %16 = getelementptr inbounds nuw %struct.pm_buffer_t, ptr %15, i32 0, i32 2
  %17 = load ptr, ptr %16, align 8, !tbaa !17
  %18 = load i64, ptr %6, align 8, !tbaa !11
  %19 = getelementptr i8, ptr %17, i64 %18
  %20 = load ptr, ptr %4, align 8, !tbaa !7
  %21 = getelementptr inbounds nuw %struct.pm_buffer_t, ptr %20, i32 0, i32 2
  %22 = load ptr, ptr %21, align 8, !tbaa !17
  %23 = load i64, ptr %7, align 8, !tbaa !11
  %24 = call ptr @memmove.inline(ptr noundef %19, ptr noundef %22, i64 noundef %23) #13
  %25 = load ptr, ptr %4, align 8, !tbaa !7
  %26 = getelementptr inbounds nuw %struct.pm_buffer_t, ptr %25, i32 0, i32 2
  %27 = load ptr, ptr %26, align 8, !tbaa !17
  %28 = load ptr, ptr %5, align 8, !tbaa !22
  %29 = load i64, ptr %6, align 8, !tbaa !11
  %30 = call ptr @memcpy.inline(ptr noundef %27, ptr noundef %28, i64 noundef %29) #13
  br label %31

31:                                               ; preds = %14, %3
  call void @llvm.lifetime.end.p0(i64 8, ptr %7) #13
  ret void
}