; Function Attrs: nounwind sspstrong uwtable
define hidden void @pm_buffer_prepend_string(ptr noundef captures(none) %0, ptr noundef readonly captures(none) %1, i64 noundef %2) local_unnamed_addr #4 {
  %4 = load i64, ptr %0, align 8, !tbaa !7
  %5 = add i64 %4, %2
  %6 = getelementptr inbounds nuw i8, ptr %0, i64 8
  %7 = load i64, ptr %6, align 8, !tbaa !14
  %8 = icmp ugt i64 %5, %7
  br i1 %8, label %9, label %._crit_edge

._crit_edge:                                      ; preds = %3
  %.phi.trans.insert = getelementptr inbounds nuw i8, ptr %0, i64 16
  %.pre = load ptr, ptr %.phi.trans.insert, align 8, !tbaa !15
  br label %22

9:                                                ; preds = %3
  %10 = icmp eq i64 %7, 0
  br i1 %10, label %11, label %12

11:                                               ; preds = %9
  store i64 1, ptr %6, align 8, !tbaa !14
  br label %12

12:                                               ; preds = %11, %9
  %.promoted.i = phi i64 [ 1, %11 ], [ %7, %9 ]
  %13 = icmp ugt i64 %5, %.promoted.i
  br i1 %13, label %.lr.ph.i, label %17

.lr.ph.i:                                         ; preds = %12, %.lr.ph.i
  %14 = phi i64 [ %15, %.lr.ph.i ], [ %.promoted.i, %12 ]
  %15 = shl i64 %14, 1
  %16 = icmp ugt i64 %5, %15
  br i1 %16, label %.lr.ph.i, label %._crit_edge.i, !llvm.loop !16

._crit_edge.i:                                    ; preds = %.lr.ph.i
  store i64 %15, ptr %6, align 8, !tbaa !14
  br label %17

17:                                               ; preds = %._crit_edge.i, %12
  %.lcssa.i = phi i64 [ %15, %._crit_edge.i ], [ %.promoted.i, %12 ]
  %18 = getelementptr inbounds nuw i8, ptr %0, i64 16
  %19 = load ptr, ptr %18, align 8, !tbaa !15
  %20 = tail call ptr @realloc(ptr noundef %19, i64 noundef %.lcssa.i) #18
  store ptr %20, ptr %18, align 8, !tbaa !15
  %21 = icmp eq ptr %20, null
  br i1 %21, label %pm_buffer_append_length.exit, label %22

22:                                               ; preds = %._crit_edge, %17
  %23 = phi ptr [ %.pre, %._crit_edge ], [ %20, %17 ]
  store i64 %5, ptr %0, align 8, !tbaa !7
  %24 = getelementptr inbounds nuw i8, ptr %0, i64 16
  %25 = getelementptr i8, ptr %23, i64 %2
  tail call void @llvm.memmove.p0.p0.i64(ptr noundef nonnull align 1 %25, ptr noundef nonnull align 1 %23, i64 noundef %4, i1 noundef false) #19
  %26 = load ptr, ptr %24, align 8, !tbaa !15
  tail call void @llvm.memcpy.p0.p0.i64(ptr noundef nonnull align 1 %26, ptr noundef nonnull align 1 %1, i64 noundef %2, i1 noundef false) #19
  br label %pm_buffer_append_length.exit

pm_buffer_append_length.exit:                     ; preds = %17, %22
  ret void
}